---
triple:          'arm64-apple-darwin'
binary-path:     '/Users/nashidrakib/Documents/DS2 LAB 2024/Lecture 1/output/vector'
relocations:
  - { offsetInCU: 0x2D97, offset: 0x2D97, size: 0x8, addend: 0x0, symName: __ZNSt3__111__sift_downB8ue170006INS_17_ClassicAlgPolicyERNS_7greaterIiEEPiEEvT1_OT0_NS_15iterator_traitsIS6_E15difference_typeES6_, symObjAddr: 0x63C, symBinAddr: 0x100004B68, symSize: 0x20C }
  - { offsetInCU: 0x2E70, offset: 0x2E70, size: 0x8, addend: 0x0, symName: __ZNSt3__117__floyd_sift_downB8ue170006INS_17_ClassicAlgPolicyERNS_7greaterIiEEPiEET1_S6_OT0_NS_15iterator_traitsIS6_E15difference_typeE, symObjAddr: 0xA78, symBinAddr: 0x100004FA4, symSize: 0x100 }
  - { offsetInCU: 0x2F08, offset: 0x2F08, size: 0x8, addend: 0x0, symName: __ZNSt3__111__introsortINS_17_ClassicAlgPolicyERNS_7greaterIiEEPiLb0EEEvT1_S6_T0_NS_15iterator_traitsIS6_E15difference_typeEb, symObjAddr: 0xD20, symBinAddr: 0x10000524C, symSize: 0x43C }
  - { offsetInCU: 0x3033, offset: 0x3033, size: 0x8, addend: 0x0, symName: __ZNSt3__126__insertion_sort_unguardedB8ue170006INS_17_ClassicAlgPolicyERNS_7greaterIiEEPiEEvT1_S6_T0_, symObjAddr: 0x1444, symBinAddr: 0x100005970, symSize: 0x120 }
  - { offsetInCU: 0x3123, offset: 0x3123, size: 0x8, addend: 0x0, symName: __ZNSt3__131__partition_with_equals_on_leftB8ue170006INS_17_ClassicAlgPolicyEPiRNS_7greaterIiEEEET0_S6_S6_T1_, symObjAddr: 0x1770, symBinAddr: 0x100005C9C, symSize: 0x20C }
  - { offsetInCU: 0x31DE, offset: 0x31DE, size: 0x8, addend: 0x0, symName: __ZNSt3__118__bitset_partitionB8ue170006INS_17_ClassicAlgPolicyEPiRNS_7greaterIiEEEENS_4pairIT0_bEES7_S7_T1_, symObjAddr: 0x197C, symBinAddr: 0x100005EA8, symSize: 0x324 }
  - { offsetInCU: 0x32D7, offset: 0x32D7, size: 0x8, addend: 0x0, symName: __ZNSt3__124__swap_bitmap_pos_withinB8ue170006INS_17_ClassicAlgPolicyEPiEEvRT0_S4_RyS5_, symObjAddr: 0x28F8, symBinAddr: 0x100006E24, symSize: 0x1E0 }
  - { offsetInCU: 0x33A4, offset: 0x33A4, size: 0x8, addend: 0x0, symName: __ZNSt3__132__partition_with_equals_on_rightB8ue170006INS_17_ClassicAlgPolicyEPiRNS_7greaterIiEEEENS_4pairIT0_bEES7_S7_T1_, symObjAddr: 0x1CA0, symBinAddr: 0x1000061CC, symSize: 0x21C }
  - { offsetInCU: 0x346E, offset: 0x346E, size: 0x8, addend: 0x0, symName: __ZNSt3__127__insertion_sort_incompleteB8ue170006INS_17_ClassicAlgPolicyERNS_7greaterIiEEPiEEbT1_S6_T0_, symObjAddr: 0x1EBC, symBinAddr: 0x1000063E8, symSize: 0x304 }
  - { offsetInCU: 0x3563, offset: 0x3563, size: 0x8, addend: 0x0, symName: __ZNSt3__124__put_character_sequenceB8ue170006IcNS_11char_traitsIcEEEERNS_13basic_ostreamIT_T0_EES7_PKS4_m, symObjAddr: 0x2C20, symBinAddr: 0x10000714C, symSize: 0x1F4 }
  - { offsetInCU: 0x4EB0, offset: 0x4EB0, size: 0x8, addend: 0x0, symName: __ZNSt3__14sortB8ue170006IPiNS_7greaterIiEEEEvT_S4_T0_, symObjAddr: 0xE4, symBinAddr: 0x100004610, symSize: 0x30 }
  - { offsetInCU: 0x4F0A, offset: 0x4F0A, size: 0x8, addend: 0x0, symName: __ZNSt3__1lsB8ue170006INS_11char_traitsIcEEEERNS_13basic_ostreamIcT_EES6_PKc, symObjAddr: 0x114, symBinAddr: 0x100004640, symSize: 0x48 }
  - { offsetInCU: 0x4F50, offset: 0x4F50, size: 0x8, addend: 0x0, symName: __ZNSt3__14endlB8ue170006IcNS_11char_traitsIcEEEERNS_13basic_ostreamIT_T0_EES7_, symObjAddr: 0x188, symBinAddr: 0x1000046B4, symSize: 0x58 }
  - { offsetInCU: 0x4F90, offset: 0x4F90, size: 0x8, addend: 0x0, symName: __ZNSt3__111__sort_implB8ue170006INS_17_ClassicAlgPolicyEPiNS_7greaterIiEEEEvT0_S5_RT1_, symObjAddr: 0x1E0, symBinAddr: 0x10000470C, symSize: 0xC0 }
  - { offsetInCU: 0x4FF3, offset: 0x4FF3, size: 0x8, addend: 0x0, symName: __ZNSt3__123__debug_randomize_rangeB8ue170006INS_17_ClassicAlgPolicyEPiS2_EEvT0_T1_, symObjAddr: 0x2A0, symBinAddr: 0x1000047CC, symSize: 0x14 }
  - { offsetInCU: 0x5044, offset: 0x5044, size: 0x8, addend: 0x0, symName: __ZNSt3__130__libcpp_is_constant_evaluatedB8ue170006Ev, symObjAddr: 0x2B4, symBinAddr: 0x1000047E0, symSize: 0xC }
  - { offsetInCU: 0x5061, offset: 0x5061, size: 0x8, addend: 0x0, symName: __ZNSt3__114__partial_sortB8ue170006INS_17_ClassicAlgPolicyENS_7greaterIiEEPiS4_EET1_S5_S5_T2_RT0_, symObjAddr: 0x2C0, symBinAddr: 0x1000047EC, symSize: 0x94 }
  - { offsetInCU: 0x50E9, offset: 0x50E9, size: 0x8, addend: 0x0, symName: __ZNSt3__113__unwrap_iterB8ue170006IPiNS_18__unwrap_iter_implIS1_Lb1EEELi0EEEDTclsrT0_8__unwrapclsr3stdE7declvalIT_EEEES5_, symObjAddr: 0x354, symBinAddr: 0x100004880, symSize: 0x24 }
  - { offsetInCU: 0x512D, offset: 0x512D, size: 0x8, addend: 0x0, symName: __ZNSt3__115__sort_dispatchB8ue170006INS_17_ClassicAlgPolicyEPiNS_7greaterIiEEEEvT0_S5_RT1_, symObjAddr: 0x378, symBinAddr: 0x1000048A4, symSize: 0x64 }
  - { offsetInCU: 0x51AB, offset: 0x51AB, size: 0x8, addend: 0x0, symName: __ZNSt3__135__check_strict_weak_ordering_sortedB8ue170006IPiNS_7greaterIiEEEEvT_S4_RT0_, symObjAddr: 0x3DC, symBinAddr: 0x100004908, symSize: 0x18 }
  - { offsetInCU: 0x52EB, offset: 0x52EB, size: 0x8, addend: 0x0, symName: __ZNSt3__119__partial_sort_implB8ue170006INS_17_ClassicAlgPolicyERNS_7greaterIiEEPiS5_EET1_S6_S6_T2_OT0_, symObjAddr: 0x40C, symBinAddr: 0x100004938, symSize: 0x110 }
  - { offsetInCU: 0x5381, offset: 0x5381, size: 0x8, addend: 0x0, symName: __ZNSt3__111__make_heapB8ue170006INS_17_ClassicAlgPolicyERNS_7greaterIiEEPiEEvT1_S6_OT0_, symObjAddr: 0x51C, symBinAddr: 0x100004A48, symSize: 0xB8 }
  - { offsetInCU: 0x548D, offset: 0x548D, size: 0x8, addend: 0x0, symName: __ZNSt3__111__sort_heapB8ue170006INS_17_ClassicAlgPolicyERNS_7greaterIiEEPiEEvT1_S6_OT0_, symObjAddr: 0x848, symBinAddr: 0x100004D74, symSize: 0xA8 }
  - { offsetInCU: 0x552F, offset: 0x552F, size: 0x8, addend: 0x0, symName: __ZNSt3__19iter_swapB8ue170006IPiS1_EEvT_T0_, symObjAddr: 0x8F0, symBinAddr: 0x100004E1C, symSize: 0x2C }
  - { offsetInCU: 0x5577, offset: 0x5577, size: 0x8, addend: 0x0, symName: __ZNSt3__14swapB8ue170006IiEEvRT_S2_, symObjAddr: 0x91C, symBinAddr: 0x100004E48, symSize: 0x3C }
  - { offsetInCU: 0x55EC, offset: 0x55EC, size: 0x8, addend: 0x0, symName: __ZNSt3__110__pop_heapB8ue170006INS_17_ClassicAlgPolicyENS_7greaterIiEEPiEEvT1_S5_RT0_NS_15iterator_traitsIS5_E15difference_typeE, symObjAddr: 0x984, symBinAddr: 0x100004EB0, symSize: 0xF4 }
  - { offsetInCU: 0x569C, offset: 0x569C, size: 0x8, addend: 0x0, symName: __ZNSt3__19__sift_upB8ue170006INS_17_ClassicAlgPolicyERNS_7greaterIiEEPiEEvT1_S6_OT0_NS_15iterator_traitsIS6_E15difference_typeE, symObjAddr: 0xB78, symBinAddr: 0x1000050A4, symSize: 0x11C }
  - { offsetInCU: 0x579F, offset: 0x579F, size: 0x8, addend: 0x0, symName: __ZNSt3__112__to_addressB8ue170006IiEEPT_S2_, symObjAddr: 0xCB8, symBinAddr: 0x1000051E4, symSize: 0x14 }
  - { offsetInCU: 0x57D4, offset: 0x57D4, size: 0x8, addend: 0x0, symName: __ZNSt3__17__log2iB8ue170006IlEET_S1_, symObjAddr: 0xCCC, symBinAddr: 0x1000051F8, symSize: 0x54 }
  - { offsetInCU: 0x580B, offset: 0x580B, size: 0x8, addend: 0x0, symName: __ZNSt3__112__libcpp_clzB8ue170006Em, symObjAddr: 0x1174, symBinAddr: 0x1000056A0, symSize: 0x1C }
  - { offsetInCU: 0x5837, offset: 0x5837, size: 0x8, addend: 0x0, symName: __ZNSt3__124__sort3_maybe_branchlessB8ue170006INS_17_ClassicAlgPolicyERNS_7greaterIiEEPiEENS_9enable_ifIXsr21__use_branchless_sortIT0_T1_EE5valueEvE4typeES8_S8_S8_S7_, symObjAddr: 0x1190, symBinAddr: 0x1000056BC, symSize: 0x4C }
  - { offsetInCU: 0x58A4, offset: 0x58A4, size: 0x8, addend: 0x0, symName: __ZNSt3__124__sort4_maybe_branchlessB8ue170006INS_17_ClassicAlgPolicyERNS_7greaterIiEEPiEENS_9enable_ifIXsr21__use_branchless_sortIT0_T1_EE5valueEvE4typeES8_S8_S8_S8_S7_, symObjAddr: 0x11DC, symBinAddr: 0x100005708, symSize: 0x7C }
  - { offsetInCU: 0x591F, offset: 0x591F, size: 0x8, addend: 0x0, symName: __ZNSt3__124__sort5_maybe_branchlessB8ue170006INS_17_ClassicAlgPolicyERNS_7greaterIiEEPiEENS_9enable_ifIXsr21__use_branchless_sortIT0_T1_EE5valueEvE4typeES8_S8_S8_S8_S8_S7_, symObjAddr: 0x1258, symBinAddr: 0x100005784, symSize: 0x9C }
  - { offsetInCU: 0x59AC, offset: 0x59AC, size: 0x8, addend: 0x0, symName: __ZNSt3__116__insertion_sortB8ue170006INS_17_ClassicAlgPolicyERNS_7greaterIiEEPiEEvT1_S6_T0_, symObjAddr: 0x12F4, symBinAddr: 0x100005820, symSize: 0x150 }
  - { offsetInCU: 0x5A6F, offset: 0x5A6F, size: 0x8, addend: 0x0, symName: __ZNSt3__114__partial_sortB8ue170006INS_17_ClassicAlgPolicyERNS_7greaterIiEEPiS5_EET1_S6_S6_T2_RT0_, symObjAddr: 0x1564, symBinAddr: 0x100005A90, symSize: 0x94 }
  - { offsetInCU: 0x5AF7, offset: 0x5AF7, size: 0x8, addend: 0x0, symName: __ZNSt3__17__sort3B8ue170006INS_17_ClassicAlgPolicyERNS_7greaterIiEEPiEEjT1_S6_S6_T0_, symObjAddr: 0x15F8, symBinAddr: 0x100005B24, symSize: 0x144 }
  - { offsetInCU: 0x5B76, offset: 0x5B76, size: 0x8, addend: 0x0, symName: __ZNSt3__111__cond_swapB8ue170006IRNS_7greaterIiEEPiEEvT0_S5_T_, symObjAddr: 0x21D8, symBinAddr: 0x100006704, symSize: 0xB8 }
  - { offsetInCU: 0x5BF3, offset: 0x5BF3, size: 0x8, addend: 0x0, symName: __ZNSt3__123__partially_sorted_swapB8ue170006IRNS_7greaterIiEEPiEEvT0_S5_S5_T_, symObjAddr: 0x2290, symBinAddr: 0x1000067BC, symSize: 0x138 }
  - { offsetInCU: 0x5C7E, offset: 0x5C7E, size: 0x8, addend: 0x0, symName: __ZNSt3__122__populate_left_bitsetB8ue170006IRNS_7greaterIiEEPiiEEvT0_T_RT1_Ry, symObjAddr: 0x23C8, symBinAddr: 0x1000068F4, symSize: 0xA8 }
  - { offsetInCU: 0x5D39, offset: 0x5D39, size: 0x8, addend: 0x0, symName: __ZNSt3__123__populate_right_bitsetB8ue170006IRNS_7greaterIiEEPiiEEvT0_T_RT1_Ry, symObjAddr: 0x2470, symBinAddr: 0x10000699C, symSize: 0xA0 }
  - { offsetInCU: 0x5DF4, offset: 0x5DF4, size: 0x8, addend: 0x0, symName: __ZNSt3__117__swap_bitmap_posB8ue170006INS_17_ClassicAlgPolicyEPiEEvT0_S3_RyS4_, symObjAddr: 0x2510, symBinAddr: 0x100006A3C, symSize: 0x100 }
  - { offsetInCU: 0x5E95, offset: 0x5E95, size: 0x8, addend: 0x0, symName: __ZNSt3__133__bitset_partition_partial_blocksB8ue170006INS_17_ClassicAlgPolicyERNS_7greaterIiEEPiiEEvRT1_S7_T0_RT2_RySB_, symObjAddr: 0x2610, symBinAddr: 0x100006B3C, symSize: 0x2E8 }
  - { offsetInCU: 0x6016, offset: 0x6016, size: 0x8, addend: 0x0, symName: __ZNSt3__19make_pairB8ue170006IRPiRbEENS_4pairINS_18__unwrap_ref_decayIT_E4typeENS5_IT0_E4typeEEEOS6_OS9_, symObjAddr: 0x2AD8, symBinAddr: 0x100007004, symSize: 0x38 }
  - { offsetInCU: 0x6065, offset: 0x6065, size: 0x8, addend: 0x0, symName: __ZNSt3__112__libcpp_ctzB8ue170006Ey, symObjAddr: 0x2B10, symBinAddr: 0x10000703C, symSize: 0x20 }
  - { offsetInCU: 0x6091, offset: 0x6091, size: 0x8, addend: 0x0, symName: __ZNSt3__113__libcpp_blsrB8ue170006Ey, symObjAddr: 0x2B30, symBinAddr: 0x10000705C, symSize: 0x2C }
  - { offsetInCU: 0x60BD, offset: 0x60BD, size: 0x8, addend: 0x0, symName: __ZNSt3__112__libcpp_clzB8ue170006Ey, symObjAddr: 0x2B90, symBinAddr: 0x1000070BC, symSize: 0x1C }
  - { offsetInCU: 0x6196, offset: 0x6196, size: 0x8, addend: 0x0, symName: __ZNSt3__116__pad_and_outputB8ue170006IcNS_11char_traitsIcEEEENS_19ostreambuf_iteratorIT_T0_EES6_PKS4_S8_S8_RNS_8ios_baseES4_, symObjAddr: 0x2E78, symBinAddr: 0x1000073A4, symSize: 0x248 }
  - { offsetInCU: 0x6265, offset: 0x6265, size: 0x8, addend: 0x0, symName: __ZNSt3__112__to_addressB8ue170006IKcEEPT_S3_, symObjAddr: 0x33F4, symBinAddr: 0x100007920, symSize: 0x14 }
  - { offsetInCU: 0x62CD, offset: 0x62CD, size: 0x8, addend: 0x0, symName: __ZNSt3__19use_facetB8ue170006INS_5ctypeIcEEEERKT_RKNS_6localeE, symObjAddr: 0x36CC, symBinAddr: 0x100007BF8, symSize: 0x2C }
  - { offsetInCU: 0x679A, offset: 0x679A, size: 0x8, addend: 0x0, symName: __ZNSt3__118__constexpr_strlenB8ue170006EPKc, symObjAddr: 0x3764, symBinAddr: 0x100007C90, symSize: 0x24 }
  - { offsetInCU: 0x8DB2, offset: 0x8DB2, size: 0x8, addend: 0x0, symName: _main, symObjAddr: 0x0, symBinAddr: 0x10000452C, symSize: 0xE4 }
  - { offsetInCU: 0x8DF6, offset: 0x8DF6, size: 0x8, addend: 0x0, symName: __ZNSt3__113basic_ostreamIcNS_11char_traitsIcEEElsB8ue170006EPFRS3_S4_E, symObjAddr: 0x15C, symBinAddr: 0x100004688, symSize: 0x2C }
  - { offsetInCU: 0x8E29, offset: 0x8E29, size: 0x8, addend: 0x0, symName: __ZNSt3__18_IterOpsINS_17_ClassicAlgPolicyEE4nextB8ue170006IPiEET_S5_S5_, symObjAddr: 0x3F4, symBinAddr: 0x100004920, symSize: 0x18 }
  - { offsetInCU: 0x8E72, offset: 0x8E72, size: 0x8, addend: 0x0, symName: __ZNKSt3__17greaterIiEclB8ue170006ERKiS3_, symObjAddr: 0x5D4, symBinAddr: 0x100004B00, symSize: 0x34 }
  - { offsetInCU: 0x8EBA, offset: 0x8EBA, size: 0x8, addend: 0x0, symName: __ZNSt3__18_IterOpsINS_17_ClassicAlgPolicyEE9iter_swapB8ue170006IRPiS5_EEvOT_OT0_, symObjAddr: 0x608, symBinAddr: 0x100004B34, symSize: 0x34 }
  - { offsetInCU: 0x8F02, offset: 0x8F02, size: 0x8, addend: 0x0, symName: __ZNSt3__18_IterOpsINS_17_ClassicAlgPolicyEE11__iter_moveB8ue170006IRPiEENS_9enable_ifIXsr12is_referenceIDTdeclsr3stdE7declvalIRT_EEEEE5valueEDTclsr3stdE4movedeclsr3stdE7declvalIS8_EEEEE4typeEOS7_, symObjAddr: 0x958, symBinAddr: 0x100004E84, symSize: 0x28 }
  - { offsetInCU: 0x8F2E, offset: 0x8F2E, size: 0x8, addend: 0x0, symName: __ZNSt3__18_IterOpsINS_17_ClassicAlgPolicyEE25__validate_iter_referenceB8ue170006IRPiEEvv, symObjAddr: 0x980, symBinAddr: 0x100004EAC, symSize: 0x4 }
  - { offsetInCU: 0x8F4B, offset: 0x8F4B, size: 0x8, addend: 0x0, symName: __ZNSt3__118__unwrap_iter_implIPiLb1EE8__unwrapB8ue170006ES1_, symObjAddr: 0xC94, symBinAddr: 0x1000051C0, symSize: 0x24 }
  - { offsetInCU: 0x8F73, offset: 0x8F73, size: 0x8, addend: 0x0, symName: __ZNSt3__18_IterOpsINS_17_ClassicAlgPolicyEE9iter_swapB8ue170006IRPiS4_EEvOT_OT0_, symObjAddr: 0x173C, symBinAddr: 0x100005C68, symSize: 0x34 }
  - { offsetInCU: 0x8FB6, offset: 0x8FB6, size: 0x8, addend: 0x0, symName: __ZNSt3__18_IterOpsINS_17_ClassicAlgPolicyEE9iter_swapB8ue170006IPiS4_EEvOT_OT0_, symObjAddr: 0x2B5C, symBinAddr: 0x100007088, symSize: 0x34 }
  - { offsetInCU: 0x9021, offset: 0x9021, size: 0x8, addend: 0x0, symName: __ZNSt3__14pairIPibEC1B8ue170006ERKS1_RKb, symObjAddr: 0x2BAC, symBinAddr: 0x1000070D8, symSize: 0x3C }
  - { offsetInCU: 0x9066, offset: 0x9066, size: 0x8, addend: 0x0, symName: __ZNSt3__14pairIPibEC2B8ue170006ERKS1_RKb, symObjAddr: 0x2BE8, symBinAddr: 0x100007114, symSize: 0x38 }
  - { offsetInCU: 0x90AB, offset: 0x90AB, size: 0x8, addend: 0x0, symName: __ZNSt3__111char_traitsIcE6lengthB8ue170006EPKc, symObjAddr: 0x2E14, symBinAddr: 0x100007340, symSize: 0x48 }
  - { offsetInCU: 0x90EC, offset: 0x90EC, size: 0x8, addend: 0x0, symName: __ZNKSt3__113basic_ostreamIcNS_11char_traitsIcEEE6sentrycvbB8ue170006Ev, symObjAddr: 0x2E5C, symBinAddr: 0x100007388, symSize: 0x1C }
  - { offsetInCU: 0x9111, offset: 0x9111, size: 0x8, addend: 0x0, symName: __ZNSt3__119ostreambuf_iteratorIcNS_11char_traitsIcEEEC1B8ue170006ERNS_13basic_ostreamIcS2_EE, symObjAddr: 0x30C0, symBinAddr: 0x1000075EC, symSize: 0x34 }
  - { offsetInCU: 0x9148, offset: 0x9148, size: 0x8, addend: 0x0, symName: __ZNKSt3__18ios_base5flagsB8ue170006Ev, symObjAddr: 0x30F4, symBinAddr: 0x100007620, symSize: 0x18 }
  - { offsetInCU: 0x916F, offset: 0x916F, size: 0x8, addend: 0x0, symName: __ZNKSt3__19basic_iosIcNS_11char_traitsIcEEE4fillB8ue170006Ev, symObjAddr: 0x310C, symBinAddr: 0x100007638, symSize: 0x64 }
  - { offsetInCU: 0x9196, offset: 0x9196, size: 0x8, addend: 0x0, symName: __ZNKSt3__119ostreambuf_iteratorIcNS_11char_traitsIcEEE6failedB8ue170006Ev, symObjAddr: 0x3170, symBinAddr: 0x10000769C, symSize: 0x24 }
  - { offsetInCU: 0x91BA, offset: 0x91BA, size: 0x8, addend: 0x0, symName: __ZNSt3__19basic_iosIcNS_11char_traitsIcEEE8setstateB8ue170006Ej, symObjAddr: 0x3194, symBinAddr: 0x1000076C0, symSize: 0x2C }
  - { offsetInCU: 0x91EE, offset: 0x91EE, size: 0x8, addend: 0x0, symName: __ZNKSt3__18ios_base5widthB8ue170006Ev, symObjAddr: 0x31CC, symBinAddr: 0x1000076F8, symSize: 0x18 }
  - { offsetInCU: 0x9214, offset: 0x9214, size: 0x8, addend: 0x0, symName: __ZNSt3__115basic_streambufIcNS_11char_traitsIcEEE5sputnB8ue170006EPKcl, symObjAddr: 0x31E4, symBinAddr: 0x100007710, symSize: 0x3C }
  - { offsetInCU: 0x9255, offset: 0x9255, size: 0x8, addend: 0x0, symName: __ZNSt3__112basic_stringIcNS_11char_traitsIcEENS_9allocatorIcEEEC1B8ue170006Emc, symObjAddr: 0x3220, symBinAddr: 0x10000774C, symSize: 0x3C }
  - { offsetInCU: 0x929B, offset: 0x929B, size: 0x8, addend: 0x0, symName: __ZNKSt3__112basic_stringIcNS_11char_traitsIcEENS_9allocatorIcEEE4dataB8ue170006Ev, symObjAddr: 0x325C, symBinAddr: 0x100007788, symSize: 0x28 }
  - { offsetInCU: 0x92C0, offset: 0x92C0, size: 0x8, addend: 0x0, symName: __ZNSt3__18ios_base5widthB8ue170006El, symObjAddr: 0x3284, symBinAddr: 0x1000077B0, symSize: 0x2C }
  - { offsetInCU: 0x9305, offset: 0x9305, size: 0x8, addend: 0x0, symName: __ZNSt3__112basic_stringIcNS_11char_traitsIcEENS_9allocatorIcEEEC2B8ue170006Emc, symObjAddr: 0x32B0, symBinAddr: 0x1000077DC, symSize: 0x4C }
  - { offsetInCU: 0x9351, offset: 0x9351, size: 0x8, addend: 0x0, symName: __ZNSt3__117__compressed_pairINS_12basic_stringIcNS_11char_traitsIcEENS_9allocatorIcEEE5__repES5_EC1B8ue170006INS_18__default_init_tagESA_EEOT_OT0_, symObjAddr: 0x32FC, symBinAddr: 0x100007828, symSize: 0x3C }
  - { offsetInCU: 0x93A8, offset: 0x93A8, size: 0x8, addend: 0x0, symName: __ZNSt3__117__compressed_pairINS_12basic_stringIcNS_11char_traitsIcEENS_9allocatorIcEEE5__repES5_EC2B8ue170006INS_18__default_init_tagESA_EEOT_OT0_, symObjAddr: 0x3338, symBinAddr: 0x100007864, symSize: 0x3C }
  - { offsetInCU: 0x93FF, offset: 0x93FF, size: 0x8, addend: 0x0, symName: __ZNSt3__122__compressed_pair_elemINS_12basic_stringIcNS_11char_traitsIcEENS_9allocatorIcEEE5__repELi0ELb0EEC2B8ue170006ENS_18__default_init_tagE, symObjAddr: 0x3374, symBinAddr: 0x1000078A0, symSize: 0x14 }
  - { offsetInCU: 0x9432, offset: 0x9432, size: 0x8, addend: 0x0, symName: __ZNSt3__122__compressed_pair_elemINS_9allocatorIcEELi1ELb1EEC2B8ue170006ENS_18__default_init_tagE, symObjAddr: 0x3388, symBinAddr: 0x1000078B4, symSize: 0x2C }
  - { offsetInCU: 0x9465, offset: 0x9465, size: 0x8, addend: 0x0, symName: __ZNSt3__19allocatorIcEC2B8ue170006Ev, symObjAddr: 0x33B4, symBinAddr: 0x1000078E0, symSize: 0x2C }
  - { offsetInCU: 0x948E, offset: 0x948E, size: 0x8, addend: 0x0, symName: __ZNSt3__116__non_trivial_ifILb1ENS_9allocatorIcEEEC2B8ue170006Ev, symObjAddr: 0x33E0, symBinAddr: 0x10000790C, symSize: 0x14 }
  - { offsetInCU: 0x94B6, offset: 0x94B6, size: 0x8, addend: 0x0, symName: __ZNKSt3__112basic_stringIcNS_11char_traitsIcEENS_9allocatorIcEEE13__get_pointerB8ue170006Ev, symObjAddr: 0x3408, symBinAddr: 0x100007934, symSize: 0x54 }
  - { offsetInCU: 0x94DA, offset: 0x94DA, size: 0x8, addend: 0x0, symName: __ZNKSt3__112basic_stringIcNS_11char_traitsIcEENS_9allocatorIcEEE9__is_longB8ue170006Ev, symObjAddr: 0x345C, symBinAddr: 0x100007988, symSize: 0x74 }
  - { offsetInCU: 0x94FE, offset: 0x94FE, size: 0x8, addend: 0x0, symName: __ZNKSt3__112basic_stringIcNS_11char_traitsIcEENS_9allocatorIcEEE18__get_long_pointerB8ue170006Ev, symObjAddr: 0x34D0, symBinAddr: 0x1000079FC, symSize: 0x28 }
  - { offsetInCU: 0x9522, offset: 0x9522, size: 0x8, addend: 0x0, symName: __ZNKSt3__112basic_stringIcNS_11char_traitsIcEENS_9allocatorIcEEE19__get_short_pointerB8ue170006Ev, symObjAddr: 0x34F8, symBinAddr: 0x100007A24, symSize: 0x28 }
  - { offsetInCU: 0x9546, offset: 0x9546, size: 0x8, addend: 0x0, symName: __ZNKSt3__117__compressed_pairINS_12basic_stringIcNS_11char_traitsIcEENS_9allocatorIcEEE5__repES5_E5firstB8ue170006Ev, symObjAddr: 0x3520, symBinAddr: 0x100007A4C, symSize: 0x24 }
  - { offsetInCU: 0x956B, offset: 0x956B, size: 0x8, addend: 0x0, symName: __ZNKSt3__122__compressed_pair_elemINS_12basic_stringIcNS_11char_traitsIcEENS_9allocatorIcEEE5__repELi0ELb0EE5__getB8ue170006Ev, symObjAddr: 0x3544, symBinAddr: 0x100007A70, symSize: 0x14 }
  - { offsetInCU: 0x9590, offset: 0x9590, size: 0x8, addend: 0x0, symName: __ZNSt3__114pointer_traitsIPKcE10pointer_toB8ue170006ERS1_, symObjAddr: 0x3558, symBinAddr: 0x100007A84, symSize: 0x14 }
  - { offsetInCU: 0x95B2, offset: 0x95B2, size: 0x8, addend: 0x0, symName: __ZNSt3__119ostreambuf_iteratorIcNS_11char_traitsIcEEEC2B8ue170006ERNS_13basic_ostreamIcS2_EE, symObjAddr: 0x356C, symBinAddr: 0x100007A98, symSize: 0x68 }
  - { offsetInCU: 0x95E9, offset: 0x95E9, size: 0x8, addend: 0x0, symName: __ZNKSt3__19basic_iosIcNS_11char_traitsIcEEE5rdbufB8ue170006Ev, symObjAddr: 0x35D4, symBinAddr: 0x100007B00, symSize: 0x24 }
  - { offsetInCU: 0x9610, offset: 0x9610, size: 0x8, addend: 0x0, symName: __ZNKSt3__18ios_base5rdbufB8ue170006Ev, symObjAddr: 0x35F8, symBinAddr: 0x100007B24, symSize: 0x18 }
  - { offsetInCU: 0x9635, offset: 0x9635, size: 0x8, addend: 0x0, symName: __ZNSt3__111char_traitsIcE11eq_int_typeB8ue170006Eii, symObjAddr: 0x3610, symBinAddr: 0x100007B3C, symSize: 0x28 }
  - { offsetInCU: 0x9667, offset: 0x9667, size: 0x8, addend: 0x0, symName: __ZNSt3__111char_traitsIcE3eofB8ue170006Ev, symObjAddr: 0x3638, symBinAddr: 0x100007B64, symSize: 0x8 }
  - { offsetInCU: 0x967B, offset: 0x967B, size: 0x8, addend: 0x0, symName: __ZNKSt3__19basic_iosIcNS_11char_traitsIcEEE5widenB8ue170006Ec, symObjAddr: 0x3640, symBinAddr: 0x100007B6C, symSize: 0x8C }
  - { offsetInCU: 0x96E7, offset: 0x96E7, size: 0x8, addend: 0x0, symName: __ZNKSt3__15ctypeIcE5widenB8ue170006Ec, symObjAddr: 0x36F8, symBinAddr: 0x100007C24, symSize: 0x38 }
  - { offsetInCU: 0x971B, offset: 0x971B, size: 0x8, addend: 0x0, symName: __ZNSt3__18ios_base8setstateB8ue170006Ej, symObjAddr: 0x3730, symBinAddr: 0x100007C5C, symSize: 0x34 }
...
